target datalayout = "e-m:e-p270:32:32-p271:32:32-p272:64:64-i64:64-i128:128-f80:128-n8:16:32:64-S128"
target triple = "x86_64-pc-linux-gnu"

%class.svector = type { %class.vector }
%class.vector = type { ptr }
%class.demodulator_util = type { ptr }
%class.obj_mark = type { [8 x i8], %class.bit_vector }
%class.bit_vector = type { i32, i32, ptr }
%struct.default_t2uint = type { i8 }
%class.ref_vector_core = type { %class.ref_manager_wrapper, %class.ptr_vector.27 }
%class.ref_manager_wrapper = type { ptr }
%class.ptr_vector.27 = type { %class.vector.28 }
%class.vector.28 = type { ptr }
%class.ref_buffer = type { %class.ref_buffer_core }
%class.ref_buffer_core = type { %class.ref_manager_wrapper, %class.ptr_buffer }
%class.ptr_buffer = type { %class.buffer }
%class.buffer = type { ptr, i32, i32, [128 x i8] }
%class.ref_vector = type { %class.ref_vector_core }
%"class.demodulator_rewriter::plugin" = type { ptr }
%class.demodulator_rewriter = type { ptr, %class.demodulator_match_subst, %class.demodulator_util, %class.bool_rewriter, %class.obj_map.46, %class.obj_map.51, %class.obj_map.56, %class.ref_buffer, %class.obj_hashtable, %class.ref_vector, %class.ref_vector, %class.ref_buffer, %class.array_map.64, %class.ref_buffer }
%class.demodulator_match_subst = type <{ %class.substitution, %class.obj_pair_hashtable, %class.svector.44, i8, [7 x i8] }>
%class.substitution = type <{ ptr, %class.var_offset_map, %class.svector.33, %class.ref_vector, %class.svector, %class.svector.35, %class.expr_offset_map, %class.ref_vector, %class.expr_offset_map.38, i32, [4 x i8] }>
%class.var_offset_map = type <{ %class.svector.31, i32, i32, i32, [4 x i8] }>
%class.svector.31 = type { %class.vector.32 }
%class.vector.32 = type { ptr }
%class.svector.33 = type { %class.vector.34 }
%class.vector.34 = type { ptr }
%class.svector.35 = type { %class.vector.36 }
%class.vector.36 = type { ptr }
%class.expr_offset_map = type <{ %class.vector.37, i32, [4 x i8] }>
%class.vector.37 = type { ptr }
%class.expr_offset_map.38 = type <{ %class.vector.39, i32, [4 x i8] }>
%class.vector.39 = type { ptr }
%class.obj_pair_hashtable = type { %class.core_hashtable.base.43, [4 x i8] }
%class.core_hashtable.base.43 = type <{ ptr, i32, i32, i32 }>
%class.svector.44 = type { %class.vector.45 }
%class.vector.45 = type { ptr }
%class.bool_rewriter = type { ptr, i8, i8, i8, i8, i8, i8, i32, i8, i32, i32, i8, %class.ptr_vector.27, %class.ptr_vector.27, %class.svector, %class.svector }
%class.obj_map.46 = type { %class.core_hashtable.47 }
%class.core_hashtable.47 = type <{ ptr, i32, i32, i32, [4 x i8] }>
%class.obj_map.51 = type { %class.core_hashtable.52 }
%class.core_hashtable.52 = type <{ ptr, i32, i32, i32, [4 x i8] }>
%class.obj_map.56 = type { %class.core_hashtable.57 }
%class.core_hashtable.57 = type <{ ptr, i32, i32, i32, [4 x i8] }>
%class.obj_hashtable = type { %class.core_hashtable.base.63, [4 x i8] }
%class.core_hashtable.base.63 = type <{ ptr, i32, i32, i32 }>
%class.array_map.64 = type { i32, i32, i32, %class.vector.65, %"class.demodulator_rewriter::plugin" }
%class.vector.65 = type { ptr }
%"class.demodulator_rewriter::remove_back_idx_proc" = type { ptr, ptr }

; Function Attrs: mustprogress nounwind uwtable
define linkonce_odr hidden void @_ZN10bit_vectorC2Ev(ptr noundef nonnull align 8 dereferenceable(16) %0) unnamed_addr #7 comdat align 2 {
  %2 = alloca ptr, align 8
  store ptr %0, ptr %2, align 8, !tbaa !543
  %3 = load ptr, ptr %2, align 8
  %4 = getelementptr inbounds nuw %class.bit_vector, ptr %3, i32 0, i32 0
  store i32 0, ptr %4, align 8, !tbaa !588
  %5 = getelementptr inbounds nuw %class.bit_vector, ptr %3, i32 0, i32 1
  store i32 0, ptr %5, align 4, !tbaa !589
  %6 = getelementptr inbounds nuw %class.bit_vector, ptr %3, i32 0, i32 2
  store ptr null, ptr %6, align 8, !tbaa !545
  ret void
}

; Function Attrs: mustprogress uwtable
define linkonce_odr hidden void @_ZN8obj_markI4expr10bit_vector14default_t2uintIS0_EEC2ERKS3_(ptr noundef nonnull align 8 dereferenceable(24) %0, ptr noundef nonnull align 1 dereferenceable(1) %1) unnamed_addr #4 comdat align 2 {
  %3 = alloca ptr, align 8
  %4 = alloca ptr, align 8
  store ptr %0, ptr %3, align 8, !tbaa !377
  store ptr %1, ptr %4, align 8, !tbaa !379
  %5 = load ptr, ptr %3, align 8
  %6 = getelementptr inbounds nuw %class.obj_mark, ptr %5, i32 0, i32 1
  call void @_ZN10bit_vectorC2Ev(ptr noundef nonnull align 8 dereferenceable(16) %6)
  ret void
}

; Function Attrs: mustprogress uwtable
define linkonce_odr hidden void @_Z13for_each_exprIN20demodulator_rewriter20remove_back_idx_procEEvRT_P4expr(ptr noundef nonnull align 8 dereferenceable(16) %0, ptr noundef %1) #4 comdat personality ptr @__gxx_personality_v0 {
  %3 = alloca ptr, align 8
  %4 = alloca ptr, align 8
  %5 = alloca %class.obj_mark, align 8
  %6 = alloca %struct.default_t2uint, align 1
  %7 = alloca ptr, align 8
  %8 = alloca i32, align 4
  store ptr %0, ptr %3, align 8, !tbaa !342
  store ptr %1, ptr %4, align 8, !tbaa !8
  call void @llvm.lifetime.start.p0(i64 24, ptr %5) #3
  call void @llvm.lifetime.start.p0(i64 1, ptr %6) #3
  call void @_ZN8obj_markI4expr10bit_vector14default_t2uintIS0_EEC2ERKS3_(ptr noundef nonnull align 8 dereferenceable(24) %5, ptr noundef nonnull align 1 dereferenceable(1) %6)
  call void @llvm.lifetime.end.p0(i64 1, ptr %6) #3
  %9 = load ptr, ptr %3, align 8, !tbaa !342
  %10 = load ptr, ptr %4, align 8, !tbaa !8
  invoke void @_Z18for_each_expr_coreIN20demodulator_rewriter20remove_back_idx_procE8obj_markI4expr10bit_vector14default_t2uintIS3_EELb0ELb0EEvRT_RT0_PS3_(ptr noundef nonnull align 8 dereferenceable(16) %9, ptr noundef nonnull align 8 dereferenceable(24) %5, ptr noundef %10)
          to label %11 unwind label %12

11:                                               ; preds = %2
  call void @_ZN8obj_markI4expr10bit_vector14default_t2uintIS0_EED2Ev(ptr noundef nonnull align 8 dereferenceable(24) %5) #3
  call void @llvm.lifetime.end.p0(i64 24, ptr %5) #3
  ret void

12:                                               ; preds = %2
  %13 = landingpad { ptr, i32 }
          cleanup
  %14 = extractvalue { ptr, i32 } %13, 0
  store ptr %14, ptr %7, align 8
  %15 = extractvalue { ptr, i32 } %13, 1
  store i32 %15, ptr %8, align 4
  call void @_ZN8obj_markI4expr10bit_vector14default_t2uintIS0_EED2Ev(ptr noundef nonnull align 8 dereferenceable(24) %5) #3
  call void @llvm.lifetime.end.p0(i64 24, ptr %5) #3
  br label %16

16:                                               ; preds = %12
  %17 = load ptr, ptr %7, align 8
  %18 = load i32, ptr %8, align 4
  %19 = insertvalue { ptr, i32 } poison, ptr %17, 0
  %20 = insertvalue { ptr, i32 } %19, i32 %18, 1
  resume { ptr, i32 } %20
}

; Function Attrs: mustprogress nounwind uwtable
define linkonce_odr hidden void @_ZN20demodulator_rewriter20remove_back_idx_procC2ER7obj_mapI9func_declP13obj_hashtableI4exprEEPS4_(ptr noundef nonnull align 8 dereferenceable(16) %0, ptr noundef nonnull align 8 dereferenceable(24) %1, ptr noundef %2) unnamed_addr #7 comdat align 2 {
  %4 = alloca ptr, align 8
  %5 = alloca ptr, align 8
  %6 = alloca ptr, align 8
  store ptr %0, ptr %4, align 8, !tbaa !342
  store ptr %1, ptr %5, align 8, !tbaa !210
  store ptr %2, ptr %6, align 8, !tbaa !8
  %7 = load ptr, ptr %4, align 8
  %8 = getelementptr inbounds nuw %"class.demodulator_rewriter::remove_back_idx_proc", ptr %7, i32 0, i32 0
  %9 = load ptr, ptr %5, align 8, !tbaa !210
  store ptr %9, ptr %8, align 8, !tbaa !210
  %10 = getelementptr inbounds nuw %"class.demodulator_rewriter::remove_back_idx_proc", ptr %7, i32 0, i32 1
  %11 = load ptr, ptr %6, align 8, !tbaa !8
  store ptr %11, ptr %10, align 8, !tbaa !344
  ret void
}

; Function Attrs: mustprogress uwtable
define hidden void @_ZN20demodulator_rewriter14remove_bwd_idxEP4expr(ptr noundef nonnull align 8 dereferenceable(872) %0, ptr noundef %1) #4 align 2 {
  %3 = alloca ptr, align 8
  %4 = alloca ptr, align 8
  %5 = alloca %"class.demodulator_rewriter::remove_back_idx_proc", align 8
  store ptr %0, ptr %3, align 8, !tbaa !196
  store ptr %1, ptr %4, align 8, !tbaa !8
  %6 = load ptr, ptr %3, align 8
  call void @llvm.lifetime.start.p0(i64 16, ptr %5) #3
  %7 = getelementptr inbounds nuw %class.demodulator_rewriter, ptr %6, i32 0, i32 5
  %8 = load ptr, ptr %4, align 8, !tbaa !8
  call void @_ZN20demodulator_rewriter20remove_back_idx_procC2ER7obj_mapI9func_declP13obj_hashtableI4exprEEPS4_(ptr noundef nonnull align 8 dereferenceable(16) %5, ptr noundef nonnull align 8 dereferenceable(24) %7, ptr noundef %8)
  %9 = load ptr, ptr %4, align 8, !tbaa !8
  call void @_Z13for_each_exprIN20demodulator_rewriter20remove_back_idx_procEEvRT_P4expr(ptr noundef nonnull align 8 dereferenceable(16) %5, ptr noundef %9)
  call void @llvm.lifetime.end.p0(i64 16, ptr %5) #3
  ret void
}